target datalayout = "e-m:e-p270:32:32-p271:32:32-p272:64:64-i64:64-i128:128-f80:128-n8:16:32:64-S128"
target triple = "x86_64-pc-linux-gnu"

%struct.strbuf = type { i64, i64, ptr }

@.str.43 = private unnamed_addr constant [12 x i8] c"thread_exit\00", align 1
@__const.fn_thread_exit_fl.buf_payload = private unnamed_addr constant %struct.strbuf { i64 0, i64 0, ptr @strbuf_slopbuf }, align 8

; Function Attrs: nounwind uwtable
define internal void @fn_thread_exit_fl(ptr noundef %0, i32 noundef %1, i64 noundef %2, i64 noundef %3) #0 {
  %5 = alloca ptr, align 8
  %6 = alloca i32, align 4
  %7 = alloca i64, align 8
  %8 = alloca i64, align 8
  %9 = alloca ptr, align 8
  %10 = alloca %struct.strbuf, align 8
  store ptr %0, ptr %5, align 8, !tbaa !8
  store i32 %1, ptr %6, align 4, !tbaa !4
  store i64 %2, ptr %7, align 8, !tbaa !12
  store i64 %3, ptr %8, align 8, !tbaa !12
  call void @llvm.lifetime.start.p0(i64 8, ptr %9) #9
  store ptr @.str.43, ptr %9, align 8, !tbaa !8
  call void @llvm.lifetime.start.p0(i64 24, ptr %10) #9
  call void @llvm.memcpy.p0.p0.i64(ptr align 8 %10, ptr align 8 @__const.fn_thread_exit_fl.buf_payload, i64 24, i1 false)
  %11 = load ptr, ptr %5, align 8, !tbaa !8
  %12 = load i32, ptr %6, align 4, !tbaa !4
  %13 = load ptr, ptr %9, align 8, !tbaa !8
  call void @perf_io_write_fl(ptr noundef %11, i32 noundef %12, ptr noundef %13, ptr noundef null, ptr noundef %7, ptr noundef %8, ptr noundef null, ptr noundef %10)
  call void @strbuf_release(ptr noundef %10)
  call void @llvm.lifetime.end.p0(i64 24, ptr %10) #9
  call void @llvm.lifetime.end.p0(i64 8, ptr %9) #9
  ret void
}