; Function Attrs: nounwind uwtable
define internal void @fn_thread_exit_fl(ptr noundef %0, i32 noundef %1, i64 noundef %2, i64 noundef %3) #0 {
  %5 = alloca i64, align 8
  %6 = alloca i64, align 8
  %7 = alloca %struct.strbuf, align 8
  store i64 %2, ptr %5, align 8, !tbaa !9
  store i64 %3, ptr %6, align 8, !tbaa !9
  call void @llvm.lifetime.start.p0(i64 24, ptr nonnull %7) #7
  call void @llvm.memcpy.p0.p0.i64(ptr noundef nonnull align 8 dereferenceable(24) %7, ptr noundef nonnull align 8 dereferenceable(24) @__const.fn_counter.buf_payload, i64 24, i1 false)
  call fastcc void @perf_io_write_fl(ptr noundef %0, i32 noundef %1, ptr noundef nonnull @.str.43, ptr noundef null, ptr noundef nonnull %5, ptr noundef nonnull %6, ptr noundef null, ptr noundef %7)
  call void @strbuf_release(ptr noundef nonnull %7) #7
  call void @llvm.lifetime.end.p0(i64 24, ptr nonnull %7) #7
  ret void
}